; ModuleID = '36/1234.c'
source_filename = "36/1234.c"
target datalayout = "e-m:e-p270:32:32-p271:32:32-p272:64:64-i64:64-f80:128-n8:16:32:64-S128"
target triple = "x86_64-pc-linux-gnu"

@.str = private unnamed_addr constant [3 x i8] c"%s\00", align 1
@.str.1 = private unnamed_addr constant [5 x i8] c"YES\0A\00", align 1
@.str.2 = private unnamed_addr constant [4 x i8] c"NO\0A\00", align 1

; Function Attrs: noinline nounwind uwtable
define dso_local i32 @main() #0 {
  %1 = alloca i32, align 4
  %2 = alloca [128 x i8], align 16
  %3 = alloca [128 x i8], align 16
  %4 = alloca [64 x i32], align 16
  %5 = alloca [64 x i32], align 16
  %6 = alloca i32, align 4
  %7 = alloca i32, align 4
  %8 = alloca i32, align 4
  %9 = alloca i8, align 1
  store i32 0, i32* %1, align 4
  store i32 0, i32* %6, align 4
  br label %10

10:                                               ; preds = %20, %0
  %11 = load i32, i32* %6, align 4
  %12 = icmp slt i32 %11, 128
  br i1 %12, label %13, label %23

13:                                               ; preds = %10
  %14 = load i32, i32* %6, align 4
  %15 = sext i32 %14 to i64
  %16 = getelementptr inbounds [64 x i32], [64 x i32]* %4, i64 0, i64 %15
  store i32 0, i32* %16, align 4
  %17 = load i32, i32* %6, align 4
  %18 = sext i32 %17 to i64
  %19 = getelementptr inbounds [64 x i32], [64 x i32]* %5, i64 0, i64 %18
  store i32 0, i32* %19, align 4
  br label %20

20:                                               ; preds = %13
  %21 = load i32, i32* %6, align 4
  %22 = add nsw i32 %21, 1
  store i32 %22, i32* %6, align 4
  br label %10

23:                                               ; preds = %10
  store i8 65, i8* %9, align 1
  %24 = getelementptr inbounds [128 x i8], [128 x i8]* %2, i64 0, i64 0
  %25 = call i32 (i8*, ...) @__isoc99_scanf(i8* getelementptr inbounds ([3 x i8], [3 x i8]* @.str, i64 0, i64 0), i8* %24)
  %26 = getelementptr inbounds [128 x i8], [128 x i8]* %3, i64 0, i64 0
  %27 = call i32 (i8*, ...) @__isoc99_scanf(i8* getelementptr inbounds ([3 x i8], [3 x i8]* @.str, i64 0, i64 0), i8* %26)
  %28 = getelementptr inbounds [128 x i8], [128 x i8]* %2, i64 0, i64 0
  %29 = call i64 @strlen(i8* %28) #3
  %30 = trunc i64 %29 to i32
  %31 = getelementptr inbounds [128 x i8], [128 x i8]* %3, i64 0, i64 0
  %32 = call i64 @strlen(i8* %31) #3
  %33 = trunc i64 %32 to i32
  %34 = icmp eq i32 %30, %33
  br i1 %34, label %35, label %119

35:                                               ; preds = %23
  store i32 0, i32* %8, align 4
  store i32 0, i32* %7, align 4
  store i32 0, i32* %8, align 4
  br label %36

36:                                               ; preds = %87, %35
  %37 = load i32, i32* %8, align 4
  %38 = icmp slt i32 %37, 128
  br i1 %38, label %39, label %90

39:                                               ; preds = %36
  store i32 0, i32* %6, align 4
  br label %40

40:                                               ; preds = %83, %39
  %41 = load i32, i32* %6, align 4
  %42 = icmp sle i32 %41, 62
  br i1 %42, label %43, label %86

43:                                               ; preds = %40
  %44 = load i32, i32* %6, align 4
  %45 = add nsw i32 65, %44
  %46 = trunc i32 %45 to i8
  store i8 %46, i8* %9, align 1
  %47 = load i32, i32* %8, align 4
  %48 = sext i32 %47 to i64
  %49 = getelementptr inbounds [128 x i8], [128 x i8]* %2, i64 0, i64 %48
  %50 = load i8, i8* %49, align 1
  %51 = sext i8 %50 to i32
  %52 = load i8, i8* %9, align 1
  %53 = sext i8 %52 to i32
  %54 = icmp eq i32 %51, %53
  br i1 %54, label %55, label %64

55:                                               ; preds = %43
  %56 = load i32, i32* %6, align 4
  %57 = sext i32 %56 to i64
  %58 = getelementptr inbounds [64 x i32], [64 x i32]* %4, i64 0, i64 %57
  %59 = load i32, i32* %58, align 4
  %60 = add nsw i32 %59, 1
  %61 = load i32, i32* %6, align 4
  %62 = sext i32 %61 to i64
  %63 = getelementptr inbounds [64 x i32], [64 x i32]* %4, i64 0, i64 %62
  store i32 %60, i32* %63, align 4
  br label %64

64:                                               ; preds = %55, %43
  %65 = load i32, i32* %8, align 4
  %66 = sext i32 %65 to i64
  %67 = getelementptr inbounds [128 x i8], [128 x i8]* %3, i64 0, i64 %66
  %68 = load i8, i8* %67, align 1
  %69 = sext i8 %68 to i32
  %70 = load i8, i8* %9, align 1
  %71 = sext i8 %70 to i32
  %72 = icmp eq i32 %69, %71
  br i1 %72, label %73, label %82

73:                                               ; preds = %64
  %74 = load i32, i32* %6, align 4
  %75 = sext i32 %74 to i64
  %76 = getelementptr inbounds [64 x i32], [64 x i32]* %5, i64 0, i64 %75
  %77 = load i32, i32* %76, align 4
  %78 = add nsw i32 %77, 1
  %79 = load i32, i32* %6, align 4
  %80 = sext i32 %79 to i64
  %81 = getelementptr inbounds [64 x i32], [64 x i32]* %5, i64 0, i64 %80
  store i32 %78, i32* %81, align 4
  br label %82

82:                                               ; preds = %73, %64
  br label %83

83:                                               ; preds = %82
  %84 = load i32, i32* %6, align 4
  %85 = add nsw i32 %84, 1
  store i32 %85, i32* %6, align 4
  br label %40

86:                                               ; preds = %40
  br label %87

87:                                               ; preds = %86
  %88 = load i32, i32* %8, align 4
  %89 = add nsw i32 %88, 1
  store i32 %89, i32* %8, align 4
  br label %36

90:                                               ; preds = %36
  store i32 0, i32* %6, align 4
  br label %91

91:                                               ; preds = %108, %90
  %92 = load i32, i32* %6, align 4
  %93 = icmp sle i32 %92, 62
  br i1 %93, label %94, label %111

94:                                               ; preds = %91
  %95 = load i32, i32* %6, align 4
  %96 = sext i32 %95 to i64
  %97 = getelementptr inbounds [64 x i32], [64 x i32]* %4, i64 0, i64 %96
  %98 = load i32, i32* %97, align 4
  %99 = load i32, i32* %6, align 4
  %100 = sext i32 %99 to i64
  %101 = getelementptr inbounds [64 x i32], [64 x i32]* %5, i64 0, i64 %100
  %102 = load i32, i32* %101, align 4
  %103 = icmp ne i32 %98, %102
  br i1 %103, label %104, label %107

104:                                              ; preds = %94
  %105 = load i32, i32* %7, align 4
  %106 = add nsw i32 %105, 1
  store i32 %106, i32* %7, align 4
  br label %107

107:                                              ; preds = %104, %94
  br label %108

108:                                              ; preds = %107
  %109 = load i32, i32* %6, align 4
  %110 = add nsw i32 %109, 1
  store i32 %110, i32* %6, align 4
  br label %91

111:                                              ; preds = %91
  %112 = load i32, i32* %7, align 4
  %113 = icmp eq i32 %112, 0
  br i1 %113, label %114, label %116

114:                                              ; preds = %111
  %115 = call i32 (i8*, ...) @printf(i8* getelementptr inbounds ([5 x i8], [5 x i8]* @.str.1, i64 0, i64 0))
  br label %118

116:                                              ; preds = %111
  %117 = call i32 (i8*, ...) @printf(i8* getelementptr inbounds ([4 x i8], [4 x i8]* @.str.2, i64 0, i64 0))
  br label %118

118:                                              ; preds = %116, %114
  br label %121

119:                                              ; preds = %23
  %120 = call i32 (i8*, ...) @printf(i8* getelementptr inbounds ([4 x i8], [4 x i8]* @.str.2, i64 0, i64 0))
  br label %121

121:                                              ; preds = %119, %118
  ret i32 0
}

declare dso_local i32 @__isoc99_scanf(i8*, ...) #1

; Function Attrs: nounwind readonly
declare dso_local i64 @strlen(i8*) #2

declare dso_local i32 @printf(i8*, ...) #1


!llvm.module.flags = !{!0}
!llvm.ident = !{!1}

!0 = !{i32 1, !"wchar_size", i32 4}
!1 = !{!"clang version 10.0.0-4ubuntu1 "}
